target datalayout = "e-m:e-p270:32:32-p271:32:32-p272:64:64-i64:64-i128:128-f80:128-n8:16:32:64-S128"
target triple = "x86_64-pc-linux-gnu"

%struct.normal_encoding = type { %struct.encoding, [256 x i8], ptr, ptr, ptr, ptr, ptr, ptr, ptr, ptr, ptr }
%struct.encoding = type { [3 x ptr], [2 x ptr], ptr, ptr, ptr, ptr, ptr, ptr, ptr, ptr, ptr, ptr, i32, i8, i8 }

; Function Attrs: nounwind uwtable
define internal i32 @unicode_byte_type(i8 noundef signext %0, i8 noundef signext %1) #0 {
  %3 = alloca i32, align 4
  %4 = alloca i8, align 1
  %5 = alloca i8, align 1
  store i8 %0, ptr %4, align 1, !tbaa !13
  store i8 %1, ptr %5, align 1, !tbaa !13
  %6 = load i8, ptr %4, align 1, !tbaa !13
  %7 = zext i8 %6 to i32
  switch i32 %7, label %15 [
    i32 216, label %8
    i32 217, label %8
    i32 218, label %8
    i32 219, label %8
    i32 220, label %9
    i32 221, label %9
    i32 222, label %9
    i32 223, label %9
    i32 255, label %10
  ]

8:                                                ; preds = %2, %2, %2, %2
  store i32 7, ptr %3, align 4
  br label %16

9:                                                ; preds = %2, %2, %2, %2
  store i32 8, ptr %3, align 4
  br label %16

10:                                               ; preds = %2
  %11 = load i8, ptr %5, align 1, !tbaa !13
  %12 = zext i8 %11 to i32
  switch i32 %12, label %14 [
    i32 255, label %13
    i32 254, label %13
  ]

13:                                               ; preds = %10, %10
  store i32 0, ptr %3, align 4
  br label %16

14:                                               ; preds = %10
  br label %15

15:                                               ; preds = %2, %14
  store i32 29, ptr %3, align 4
  br label %16

16:                                               ; preds = %15, %13, %9, %8
  %17 = load i32, ptr %3, align 4
  ret i32 %17
}

; Function Attrs: nounwind uwtable
define internal i32 @little2_nameLength(ptr noundef %0, ptr noundef %1) #0 {
  %3 = alloca ptr, align 8
  %4 = alloca ptr, align 8
  %5 = alloca ptr, align 8
  store ptr %0, ptr %3, align 8, !tbaa !45
  store ptr %1, ptr %4, align 8, !tbaa !4
  call void @llvm.lifetime.start.p0(i64 8, ptr %5) #4
  %6 = load ptr, ptr %4, align 8, !tbaa !4
  store ptr %6, ptr %5, align 8, !tbaa !4
  br label %7

7:                                                ; preds = %51, %2
  %8 = load ptr, ptr %4, align 8, !tbaa !4
  %9 = getelementptr inbounds i8, ptr %8, i64 1
  %10 = load i8, ptr %9, align 1, !tbaa !13
  %11 = sext i8 %10 to i32
  %12 = icmp eq i32 %11, 0
  br i1 %12, label %13, label %22

13:                                               ; preds = %7
  %14 = load ptr, ptr %3, align 8, !tbaa !45
  %15 = getelementptr inbounds nuw %struct.normal_encoding, ptr %14, i32 0, i32 1
  %16 = load ptr, ptr %4, align 8, !tbaa !4
  %17 = load i8, ptr %16, align 1, !tbaa !13
  %18 = zext i8 %17 to i64
  %19 = getelementptr inbounds nuw [256 x i8], ptr %15, i64 0, i64 %18
  %20 = load i8, ptr %19, align 1, !tbaa !13
  %21 = zext i8 %20 to i32
  br label %30

22:                                               ; preds = %7
  %23 = load ptr, ptr %4, align 8, !tbaa !4
  %24 = getelementptr inbounds i8, ptr %23, i64 1
  %25 = load i8, ptr %24, align 1, !tbaa !13
  %26 = load ptr, ptr %4, align 8, !tbaa !4
  %27 = getelementptr inbounds i8, ptr %26, i64 0
  %28 = load i8, ptr %27, align 1, !tbaa !13
  %29 = call i32 @unicode_byte_type(i8 noundef signext %25, i8 noundef signext %28)
  br label %30

30:                                               ; preds = %22, %13
  %31 = phi i32 [ %21, %13 ], [ %29, %22 ]
  switch i32 %31, label %44 [
    i32 5, label %32
    i32 6, label %35
    i32 7, label %38
    i32 29, label %41
    i32 22, label %41
    i32 24, label %41
    i32 25, label %41
    i32 26, label %41
    i32 27, label %41
  ]

32:                                               ; preds = %30
  %33 = load ptr, ptr %4, align 8, !tbaa !4
  %34 = getelementptr inbounds i8, ptr %33, i64 2
  store ptr %34, ptr %4, align 8, !tbaa !4
  br label %51

35:                                               ; preds = %30
  %36 = load ptr, ptr %4, align 8, !tbaa !4
  %37 = getelementptr inbounds i8, ptr %36, i64 3
  store ptr %37, ptr %4, align 8, !tbaa !4
  br label %51

38:                                               ; preds = %30
  %39 = load ptr, ptr %4, align 8, !tbaa !4
  %40 = getelementptr inbounds i8, ptr %39, i64 4
  store ptr %40, ptr %4, align 8, !tbaa !4
  br label %51

41:                                               ; preds = %30, %30, %30, %30, %30, %30
  %42 = load ptr, ptr %4, align 8, !tbaa !4
  %43 = getelementptr inbounds i8, ptr %42, i64 2
  store ptr %43, ptr %4, align 8, !tbaa !4
  br label %51

44:                                               ; preds = %30
  %45 = load ptr, ptr %4, align 8, !tbaa !4
  %46 = load ptr, ptr %5, align 8, !tbaa !4
  %47 = ptrtoint ptr %45 to i64
  %48 = ptrtoint ptr %46 to i64
  %49 = sub i64 %47, %48
  %50 = trunc i64 %49 to i32
  call void @llvm.lifetime.end.p0(i64 8, ptr %5) #4
  ret i32 %50

51:                                               ; preds = %41, %38, %35, %32
  br label %7
}