; Function Attrs: nofree norecurse nosync nounwind memory(argmem: read) uwtable
define internal i32 @little2_nameLength(ptr noundef readonly captures(none) %0, ptr noundef %1) #7 {
  %3 = getelementptr inbounds nuw i8, ptr %0, i64 128
  br label %4

4:                                                ; preds = %unicode_byte_type.exit.thread16, %2
  %.0 = phi ptr [ %1, %2 ], [ %18, %unicode_byte_type.exit.thread16 ]
  %5 = getelementptr inbounds nuw i8, ptr %.0, i64 1
  %6 = load i8, ptr %5, align 1, !tbaa !9
  switch i8 %6, label %unicode_byte_type.exit.thread16 [
    i8 0, label %unicode_byte_type.exit
    i8 -40, label %unicode_byte_type.exit.thread14
    i8 -39, label %unicode_byte_type.exit.thread14
    i8 -38, label %unicode_byte_type.exit.thread14
    i8 -37, label %unicode_byte_type.exit.thread14
    i8 -36, label %unicode_byte_type.exit.thread
    i8 -35, label %unicode_byte_type.exit.thread
    i8 -34, label %unicode_byte_type.exit.thread
    i8 -33, label %unicode_byte_type.exit.thread
    i8 -1, label %7
  ]

7:                                                ; preds = %4
  %8 = load i8, ptr %.0, align 1, !tbaa !9
  %switch.i = icmp ugt i8 %8, -3
  br i1 %switch.i, label %unicode_byte_type.exit.thread, label %unicode_byte_type.exit.thread16

unicode_byte_type.exit:                           ; preds = %4
  %9 = load i8, ptr %.0, align 1, !tbaa !9
  %10 = zext i8 %9 to i64
  %11 = getelementptr inbounds nuw [256 x i8], ptr %3, i64 0, i64 %10
  %12 = load i8, ptr %11, align 1, !tbaa !9
  switch i8 %12, label %unicode_byte_type.exit.thread [
    i8 5, label %unicode_byte_type.exit.thread16
    i8 6, label %13
    i8 7, label %unicode_byte_type.exit.thread14
    i8 29, label %unicode_byte_type.exit.thread16
    i8 22, label %unicode_byte_type.exit.thread16
    i8 24, label %unicode_byte_type.exit.thread16
    i8 25, label %unicode_byte_type.exit.thread16
    i8 26, label %unicode_byte_type.exit.thread16
    i8 27, label %unicode_byte_type.exit.thread16
  ]

13:                                               ; preds = %unicode_byte_type.exit
  br label %unicode_byte_type.exit.thread16

unicode_byte_type.exit.thread14:                  ; preds = %4, %4, %4, %4, %unicode_byte_type.exit
  br label %unicode_byte_type.exit.thread16

unicode_byte_type.exit.thread:                    ; preds = %4, %4, %4, %4, %7, %unicode_byte_type.exit
  %14 = ptrtoint ptr %.0 to i64
  %15 = ptrtoint ptr %1 to i64
  %16 = sub i64 %14, %15
  %17 = trunc i64 %16 to i32
  ret i32 %17

unicode_byte_type.exit.thread16:                  ; preds = %unicode_byte_type.exit, %unicode_byte_type.exit, %unicode_byte_type.exit, %unicode_byte_type.exit, %unicode_byte_type.exit, %unicode_byte_type.exit, %7, %4, %unicode_byte_type.exit, %unicode_byte_type.exit.thread14, %13
  %.sink = phi i64 [ 4, %unicode_byte_type.exit.thread14 ], [ 3, %13 ], [ 2, %unicode_byte_type.exit ], [ 2, %4 ], [ 2, %7 ], [ 2, %unicode_byte_type.exit ], [ 2, %unicode_byte_type.exit ], [ 2, %unicode_byte_type.exit ], [ 2, %unicode_byte_type.exit ], [ 2, %unicode_byte_type.exit ], [ 2, %unicode_byte_type.exit ]
  %18 = getelementptr inbounds nuw i8, ptr %.0, i64 %.sink
  br label %4
}